target datalayout = "e-m:e-p270:32:32-p271:32:32-p272:64:64-i64:64-i128:128-f80:128-n8:16:32:64-S128"
target triple = "x86_64-pc-linux-gnu"

%struct._packet_info = type { ptr, ptr, i32, i32, %struct.nstime_t, %struct.nstime_t, %struct.nstime_t, i32, ptr, ptr, ptr, ptr, %struct._address, %struct._address, %struct._address, %struct._address, %struct._address, %struct._address, i32, ptr, i32, %struct.anon, i32, i32, i32, i32, ptr, i32, ptr, ptr, i16, i16, i32, i32, i16, i32, i32, ptr, ptr, ptr, i8, i8, i16, i16, i16, i32, i16, i16, ptr, ptr, ptr, ptr, ptr, i32 }
%struct.nstime_t = type { i64, i32 }
%struct._address = type { i32, i32, ptr, ptr }
%struct.anon = type { i8, [3 x i8] }

@hf_ubx_nav_odo = internal global i32 0, align 4
@.str.151 = private unnamed_addr constant [12 x i8] c"UBX-NAV-ODO\00", align 1
@hf_ubx_nav_odo_version = internal global i32 0, align 4
@hf_ubx_nav_odo_reserved1 = internal global i32 0, align 4
@hf_ubx_nav_odo_itow = internal global i32 0, align 4
@hf_ubx_nav_odo_distance = internal global i32 0, align 4
@hf_ubx_nav_odo_totaldistance = internal global i32 0, align 4
@hf_ubx_nav_odo_distancestd = internal global i32 0, align 4
@ett_ubx_nav_odo = internal global i32 0, align 4

; Function Attrs: nounwind uwtable
define internal i32 @dissect_ubx_nav_odo(ptr noundef %0, ptr noundef %1, ptr noundef %2, ptr noundef %3) #0 {
  %5 = alloca ptr, align 8
  %6 = alloca ptr, align 8
  %7 = alloca ptr, align 8
  %8 = alloca ptr, align 8
  %9 = alloca ptr, align 8
  %10 = alloca ptr, align 8
  store ptr %0, ptr %5, align 8
  store ptr %1, ptr %6, align 8
  store ptr %2, ptr %7, align 8
  store ptr %3, ptr %8, align 8
  %11 = load ptr, ptr %6, align 8
  %12 = getelementptr inbounds %struct._packet_info, ptr %11, i32 0, i32 1
  %13 = load ptr, ptr %12, align 8
  call void @col_set_str(ptr noundef %13, i32 noundef 34, ptr noundef @.str.151)
  %14 = load ptr, ptr %6, align 8
  %15 = getelementptr inbounds %struct._packet_info, ptr %14, i32 0, i32 1
  %16 = load ptr, ptr %15, align 8
  call void @col_clear(ptr noundef %16, i32 noundef 25)
  %17 = load ptr, ptr %7, align 8
  %18 = load i32, ptr @hf_ubx_nav_odo, align 4
  %19 = load ptr, ptr %5, align 8
  %20 = call ptr @proto_tree_add_item(ptr noundef %17, i32 noundef %18, ptr noundef %19, i32 noundef 0, i32 noundef 20, i32 noundef 0)
  store ptr %20, ptr %9, align 8
  %21 = load ptr, ptr %9, align 8
  %22 = load i32, ptr @ett_ubx_nav_odo, align 4
  %23 = call ptr @proto_item_add_subtree(ptr noundef %21, i32 noundef %22)
  store ptr %23, ptr %10, align 8
  %24 = load ptr, ptr %10, align 8
  %25 = load i32, ptr @hf_ubx_nav_odo_version, align 4
  %26 = load ptr, ptr %5, align 8
  %27 = call ptr @proto_tree_add_item(ptr noundef %24, i32 noundef %25, ptr noundef %26, i32 noundef 0, i32 noundef 1, i32 noundef 0)
  %28 = load ptr, ptr %10, align 8
  %29 = load i32, ptr @hf_ubx_nav_odo_reserved1, align 4
  %30 = load ptr, ptr %5, align 8
  %31 = call ptr @proto_tree_add_item(ptr noundef %28, i32 noundef %29, ptr noundef %30, i32 noundef 1, i32 noundef 3, i32 noundef -2147483648)
  %32 = load ptr, ptr %10, align 8
  %33 = load i32, ptr @hf_ubx_nav_odo_itow, align 4
  %34 = load ptr, ptr %5, align 8
  %35 = call ptr @proto_tree_add_item(ptr noundef %32, i32 noundef %33, ptr noundef %34, i32 noundef 4, i32 noundef 4, i32 noundef -2147483648)
  %36 = load ptr, ptr %10, align 8
  %37 = load i32, ptr @hf_ubx_nav_odo_distance, align 4
  %38 = load ptr, ptr %5, align 8
  %39 = call ptr @proto_tree_add_item(ptr noundef %36, i32 noundef %37, ptr noundef %38, i32 noundef 8, i32 noundef 4, i32 noundef -2147483648)
  %40 = load ptr, ptr %10, align 8
  %41 = load i32, ptr @hf_ubx_nav_odo_totaldistance, align 4
  %42 = load ptr, ptr %5, align 8
  %43 = call ptr @proto_tree_add_item(ptr noundef %40, i32 noundef %41, ptr noundef %42, i32 noundef 12, i32 noundef 4, i32 noundef -2147483648)
  %44 = load ptr, ptr %10, align 8
  %45 = load i32, ptr @hf_ubx_nav_odo_distancestd, align 4
  %46 = load ptr, ptr %5, align 8
  %47 = call ptr @proto_tree_add_item(ptr noundef %44, i32 noundef %45, ptr noundef %46, i32 noundef 16, i32 noundef 4, i32 noundef -2147483648)
  %48 = load ptr, ptr %5, align 8
  %49 = call i32 @tvb_captured_length(ptr noundef %48)
  ret i32 %49
}