; Function Attrs: nounwind uwtable
define internal i32 @dissect_ubx_nav_odo(ptr noundef %0, ptr noundef readonly captures(none) %1, ptr noundef %2, ptr readnone captures(none) %3) #0 {
  %5 = getelementptr inbounds nuw i8, ptr %1, i64 8
  %6 = load ptr, ptr %5, align 8
  tail call void @col_set_str(ptr noundef %6, i32 noundef 34, ptr noundef nonnull @.str.151) #5
  %7 = load ptr, ptr %5, align 8
  tail call void @col_clear(ptr noundef %7, i32 noundef 25) #5
  %8 = load i32, ptr @hf_ubx_nav_odo, align 4
  %9 = tail call ptr @proto_tree_add_item(ptr noundef %2, i32 noundef %8, ptr noundef %0, i32 noundef 0, i32 noundef 20, i32 noundef 0) #5
  %10 = load i32, ptr @ett_ubx_nav_odo, align 4
  %11 = tail call ptr @proto_item_add_subtree(ptr noundef %9, i32 noundef %10) #5
  %12 = load i32, ptr @hf_ubx_nav_odo_version, align 4
  %13 = tail call ptr @proto_tree_add_item(ptr noundef %11, i32 noundef %12, ptr noundef %0, i32 noundef 0, i32 noundef 1, i32 noundef 0) #5
  %14 = load i32, ptr @hf_ubx_nav_odo_reserved1, align 4
  %15 = tail call ptr @proto_tree_add_item(ptr noundef %11, i32 noundef %14, ptr noundef %0, i32 noundef 1, i32 noundef 3, i32 noundef -2147483648) #5
  %16 = load i32, ptr @hf_ubx_nav_odo_itow, align 4
  %17 = tail call ptr @proto_tree_add_item(ptr noundef %11, i32 noundef %16, ptr noundef %0, i32 noundef 4, i32 noundef 4, i32 noundef -2147483648) #5
  %18 = load i32, ptr @hf_ubx_nav_odo_distance, align 4
  %19 = tail call ptr @proto_tree_add_item(ptr noundef %11, i32 noundef %18, ptr noundef %0, i32 noundef 8, i32 noundef 4, i32 noundef -2147483648) #5
  %20 = load i32, ptr @hf_ubx_nav_odo_totaldistance, align 4
  %21 = tail call ptr @proto_tree_add_item(ptr noundef %11, i32 noundef %20, ptr noundef %0, i32 noundef 12, i32 noundef 4, i32 noundef -2147483648) #5
  %22 = load i32, ptr @hf_ubx_nav_odo_distancestd, align 4
  %23 = tail call ptr @proto_tree_add_item(ptr noundef %11, i32 noundef %22, ptr noundef %0, i32 noundef 16, i32 noundef 4, i32 noundef -2147483648) #5
  %24 = tail call i32 @tvb_captured_length(ptr noundef %0) #5
  ret i32 %24
}